; Function Attrs: mustprogress uwtable
define void @_ZN6icu_776number9Precision9incrementEd(ptr dead_on_unwind noalias writable writeonly sret(%"class.icu_77::number::IncrementPrecision") align 8 captures(none) %0, double noundef %1) local_unnamed_addr #1 align 2 personality ptr @__gxx_personality_v0 {
  %3 = alloca %"class.icu_77::number::impl::DecimalQuantity", align 8
  %4 = fcmp ogt double %1, 0.000000e+00
  br i1 %4, label %5, label %24

5:                                                ; preds = %2
  call void @llvm.lifetime.start.p0(i64 72, ptr nonnull %3) #22
  call void @_ZN6icu_776number4impl15DecimalQuantityC1Ev(ptr noundef nonnull align 8 dereferenceable(66) %3)
  %6 = invoke noundef nonnull align 8 dereferenceable(66) ptr @_ZN6icu_776number4impl15DecimalQuantity11setToDoubleEd(ptr noundef nonnull align 8 dereferenceable(66) %3, double noundef %1)
          to label %7 unwind label %19

7:                                                ; preds = %5
  invoke void @_ZN6icu_776number4impl15DecimalQuantity15roundToInfinityEv(ptr noundef nonnull align 8 dereferenceable(66) %3)
          to label %8 unwind label %19

8:                                                ; preds = %7
  %9 = invoke noundef i32 @_ZN6icu_776number4impl15DecimalQuantity17adjustToZeroScaleEv(ptr noundef nonnull align 8 dereferenceable(66) %3)
          to label %10 unwind label %21

10:                                               ; preds = %8
  %11 = invoke noundef i64 @_ZNK6icu_776number4impl15DecimalQuantity6toLongEb(ptr noundef nonnull align 8 dereferenceable(66) %3, i1 noundef zeroext false)
          to label %12 unwind label %21

12:                                               ; preds = %10
  %13 = trunc i32 %9 to i16
  %switch.selectcmp = icmp eq i64 %11, 5
  %switch.select = select i1 %switch.selectcmp, i32 7, i32 5
  %switch.selectcmp7 = icmp eq i64 %11, 1
  %switch.select8 = select i1 %switch.selectcmp7, i32 6, i32 %switch.select
  %14 = getelementptr inbounds nuw i8, ptr %0, i64 24
  %.sroa.9.0..sroa_idx21.i = getelementptr inbounds nuw i8, ptr %0, i64 20
  %.sroa.8.0..sroa_idx17.i = getelementptr inbounds nuw i8, ptr %0, i64 18
  %.sroa.7.0..sroa_idx13.i = getelementptr inbounds nuw i8, ptr %0, i64 16
  %15 = getelementptr inbounds nuw i8, ptr %0, i64 8
  %16 = icmp sgt i16 %13, 0
  %17 = sub i16 0, %13
  %18 = select i1 %16, i16 0, i16 %17
  store i32 %switch.select8, ptr %0, align 8, !tbaa !27, !alias.scope !59
  store i64 %11, ptr %15, align 8, !alias.scope !59
  store i16 %13, ptr %.sroa.7.0..sroa_idx13.i, align 8, !alias.scope !59
  store i16 %18, ptr %.sroa.8.0..sroa_idx17.i, align 2, !alias.scope !59
  store i32 0, ptr %.sroa.9.0..sroa_idx21.i, align 4, !tbaa !17, !alias.scope !59
  store i32 0, ptr %14, align 8, !tbaa !31, !alias.scope !59
  call void @_ZN6icu_776number4impl15DecimalQuantityD1Ev(ptr noundef nonnull align 8 dereferenceable(66) %3) #22
  call void @llvm.lifetime.end.p0(i64 72, ptr nonnull %3) #22
  br label %27

19:                                               ; preds = %7, %5
  %20 = landingpad { ptr, i32 }
          cleanup
  br label %23

21:                                               ; preds = %10, %8
  %22 = landingpad { ptr, i32 }
          cleanup
  br label %23

23:                                               ; preds = %21, %19
  %.pn = phi { ptr, i32 } [ %22, %21 ], [ %20, %19 ]
  call void @_ZN6icu_776number4impl15DecimalQuantityD1Ev(ptr noundef nonnull align 8 dereferenceable(66) %3) #22
  call void @llvm.lifetime.end.p0(i64 72, ptr nonnull %3) #22
  resume { ptr, i32 } %.pn

24:                                               ; preds = %2
  store i32 9, ptr %0, align 8, !tbaa !27
  %25 = getelementptr inbounds nuw i8, ptr %0, i64 24
  store i32 0, ptr %25, align 8, !tbaa !31
  %26 = getelementptr inbounds nuw i8, ptr %0, i64 8
  store i32 65810, ptr %26, align 8, !tbaa !17
  br label %27

27:                                               ; preds = %24, %12
  ret void
}